(dp1
S'WSA'
p2
(dp3
S'points'
p4
(lp5
(F-79.700000000000003
F-1.2
tp6
a(F-66.400000000000006
F-20
tp7
a(F-72.099999999999994
F-50
tp8
a(F-67.299999999999997
F-56.700000000000003
tp9
a(F-82
F-56.700000000000003
tp10
a(F-82
F0.5
tp11
assS'CAS'
p12
(dp13
g4
(lp14
(F60
F30
tp15
a(F60
F50
tp16
a(F75
F50
tp17
a(F75
F30
tp18
assS'NEB'
p19
(dp20
g4
(lp21
(F-34
F-20
tp22
a(F-50
F-20
tp23
a(F-50
F0
tp24
a(F-34
F0
tp25
assS'NAS'
p26
(dp27
g4
(lp28
(F40
F50
tp29
a(F40
F70
tp30
a(F180
F70
tp31
a(F180
F50
tp32
assS'CAM'
p33
(dp34
g4
(lp35
(F-68.799999999999997
F11.4
tp36
a(F-79.700000000000003
F-1.2
tp37
a(F-118.3
F28.600000000000001
tp38
a(F-90.299999999999997
F28.600000000000001
tp39
assS'NAU'
p40
(dp41
g4
(lp42
(F110
F-30
tp43
a(F110
F-10
tp44
a(F155
F-10
tp45
a(F155
F-30
tp46
assS'NEU'
p47
(dp48
g4
(lp49
(F-10
F48
tp50
a(F-10
F75
tp51
a(F40
F75
tp52
a(F40
F61.299999999999997
tp53
assS'TIB'
p54
(dp55
g4
(lp56
(F75
F30
tp57
a(F75
F50
tp58
a(F100
F50
tp59
a(F100
F30
tp60
assS'CGI'
p61
(dp62
g4
(lp63
(F-10
F50
tp64
a(F-105
F50
tp65
a(F-105
F85
tp66
a(F-10
F85
tp67
assS'SAH'
p68
(dp69
g4
(lp70
(F-20
F15
tp71
a(F-20
F30
tp72
a(F40
F30
tp73
a(F40
F15
tp74
assS'SAF'
p75
(dp76
g4
(lp77
(F-10
F-35
tp78
a(F-10
F-11.4
tp79
a(F52
F-11.4
tp80
a(F52
F-35
tp81
assS'EAF'
p82
(dp83
g4
(lp84
(F25
F-11.4
tp85
a(F25
F15
tp86
a(F52
F15
tp87
a(F52
F-11.4
tp88
assS'CEU'
p89
(dp90
g4
(lp91
(F-10
F45
tp92
a(F-10
F48
tp93
a(F40
F61.299999999999997
tp94
a(F40
F45
tp95
assS'AMZ'
p96
(dp97
g4
(lp98
(F-66.400000000000006
F-20
tp99
a(F-79.700000000000003
F-1.2
tp100
a(F-68.799999999999997
F11.4
tp101
a(F-50
F11.4
tp102
a(F-50
F-20
tp103
assS'SEA'
p104
(dp105
g4
(lp106
(F95
F-10
tp107
a(F95
F20
tp108
a(F155
F20
tp109
a(F155
F-10
tp110
assS'SAS'
p111
(dp112
g4
(lp113
(F60
F5
tp114
a(F60
F30
tp115
a(F100
F30
tp116
a(F100
F20
tp117
a(F95
F20
tp118
a(F95
F5
tp119
assS'EAS'
p120
(dp121
g4
(lp122
(F100
F20
tp123
a(F100
F50
tp124
a(F145
F50
tp125
a(F145
F20
tp126
assS'SAU'
p127
(dp128
g4
(lp129
(F110
F-50
tp130
a(F110
F-30
tp131
a(F180
F-30
tp132
a(F180
F-50
tp133
assS'ENA'
p134
(dp135
g4
(lp136
(F-60
F25
tp137
a(F-85
F25
tp138
a(F-85
F50
tp139
a(F-60
F50
tp140
assS'WAF'
p141
(dp142
g4
(lp143
(F-20
F-11.4
tp144
a(F-20
F15
tp145
a(F25
F15
tp146
a(F25
F-11.4
tp147
assS'WNA'
p148
(dp149
g4
(lp150
(F-105
F28.600000000000001
tp151
a(F-130
F28.600000000000001
tp152
a(F-130
F60
tp153
a(F-105
F60
tp154
assS'CNA'
p155
(dp156
g4
(lp157
(F-85
F50
tp158
a(F-85
F28.600000000000001
tp159
a(F-105
F28.600000000000001
tp160
a(F-105
F50
tp161
assS'WAS'
p162
(dp163
g4
(lp164
(F40
F15
tp165
a(F40
F50
tp166
a(F60
F50
tp167
a(F60
F15
tp168
assS'MED'
p169
(dp170
g4
(lp171
(F-10
F30
tp172
a(F-10
F45
tp173
a(F40
F45
tp174
a(F40
F30
tp175
assS'ALA'
p176
(dp177
g4
(lp178
(F-105
F60
tp179
a(F-168
F60
tp180
a(F-168
F72.599999999999994
tp181
a(F-105
F72.599999999999994
tp182
assS'SSA'
p183
(dp184
g4
(lp185
(F-39.399999999999999
F-20
tp186
a(F-39.399999999999999
F-56.700000000000003
tp187
a(F-67.299999999999997
F-56.700000000000003
tp188
a(F-72.099999999999994
F-50
tp189
a(F-66.400000000000006
F-20
tp190
ass.